	.file	"mathlibtest.cpp"
	.text
.Ltext_begin:
	.data
	.file	1 "mathlibtest.cpp"
	.file	2 "/usr/bin/../lib/gcc/x86_64-linux-gnu/4.8/../../../../include/x86_64-linux-gnu/c++/4.8/32/bits/c++config.h"
	.file	3 "/usr/bin/../lib/gcc/x86_64-linux-gnu/4.8/../../../../include/c++/4.8/bits/ios_base.h"
	.file	4 "/usr/bin/../lib/gcc/x86_64-linux-gnu/4.8/../../../../include/c++/4.8/iostream"
	.file	5 "/usr/bin/../lib/gcc/x86_64-linux-gnu/4.8/../../../../include/c++/4.8/debug/debug.h"
	.section	.text.startup,"ax",@progbits
	.align	16, 0x90
	.type	__cxx_global_var_init,@function
__cxx_global_var_init:                  # @__cxx_global_var_init
	.cfi_startproc
.Lfunc_begin0:
	.loc	4 74 0                  # /usr/bin/../lib/gcc/x86_64-linux-gnu/4.8/../../../../include/c++/4.8/iostream:74:0
# BB#0:
	pushl	%ebp
.Ltmp2:
	.cfi_def_cfa_offset 8
.Ltmp3:
	.cfi_offset %ebp, -8
	movl	%esp, %ebp
.Ltmp4:
	.cfi_def_cfa_register %ebp
	subl	$24, %esp
	leal	_ZStL8__ioinit, %eax
	.loc	4 74 0 prologue_end     # /usr/bin/../lib/gcc/x86_64-linux-gnu/4.8/../../../../include/c++/4.8/iostream:74:0
.Ltmp5:
	movl	%eax, (%esp)
	calll	_ZNSt8ios_base4InitC1Ev
	leal	_ZNSt8ios_base4InitD1Ev, %eax
	leal	_ZStL8__ioinit, %ecx
	leal	__dso_handle, %edx
	movl	%eax, (%esp)
	movl	%ecx, 4(%esp)
	movl	%edx, 8(%esp)
	calll	__cxa_atexit
	movl	%eax, -4(%ebp)          # 4-byte Spill
	addl	$24, %esp
	popl	%ebp
	ret
.Ltmp6:
.Ltmp7:
	.size	__cxx_global_var_init, .Ltmp7-__cxx_global_var_init
.Lfunc_end0:
	.cfi_endproc

	.text
	.globl	main
	.align	16, 0x90
	.type	main,@function
main:                                   # @main
	.cfi_startproc
.Lfunc_begin1:
	.loc	1 9 0                   # mathlibtest.cpp:9:0
# BB#0:
	pushl	%ebp
.Ltmp10:
	.cfi_def_cfa_offset 8
.Ltmp11:
	.cfi_offset %ebp, -8
	movl	%esp, %ebp
.Ltmp12:
	.cfi_def_cfa_register %ebp
	subl	$40, %esp
	leal	_ZSt4cout, %eax
	leal	.L.str, %ecx
	.loc	1 10 0 prologue_end     # mathlibtest.cpp:10:0
.Ltmp13:
	movl	$0, -4(%ebp)
	.loc	1 11 0                  # mathlibtest.cpp:11:0
	movl	$0, -8(%ebp)
	.loc	1 12 0                  # mathlibtest.cpp:12:0
	movl	%eax, (%esp)
	movl	%ecx, 4(%esp)
	calll	_ZStlsISt11char_traitsIcEERSt13basic_ostreamIcT_ES5_PKc
	leal	.L.str1, %ecx
	movl	%eax, (%esp)
	movl	%ecx, 4(%esp)
	calll	_ZStlsISt11char_traitsIcEERSt13basic_ostreamIcT_ES5_PKc
	leal	_ZSt3cin, %ecx
	leal	-4(%ebp), %edx
	.loc	1 13 0                  # mathlibtest.cpp:13:0
	movl	%ecx, (%esp)
	movl	%edx, 4(%esp)
	movl	%eax, -12(%ebp)         # 4-byte Spill
	calll	_ZNSirsERi
	leal	_ZSt3cin, %ecx
	leal	-8(%ebp), %edx
	.loc	1 14 0                  # mathlibtest.cpp:14:0
	movl	%ecx, (%esp)
	movl	%edx, 4(%esp)
	movl	%eax, -16(%ebp)         # 4-byte Spill
	calll	_ZNSirsERi
	.loc	1 16 0                  # mathlibtest.cpp:16:0
	movl	-4(%ebp), %ecx
	movl	-8(%ebp), %edx
	movl	%ecx, (%esp)
	movl	%edx, 4(%esp)
	movl	%eax, -20(%ebp)         # 4-byte Spill
	calll	_Z7productii
	leal	_ZSt4cout, %ecx
	movl	%ecx, (%esp)
	movl	%eax, 4(%esp)
	calll	_ZNSolsEi
	leal	.L.str1, %ecx
	movl	%eax, (%esp)
	movl	%ecx, 4(%esp)
	calll	_ZStlsISt11char_traitsIcEERSt13basic_ostreamIcT_ES5_PKc
	.loc	1 17 0                  # mathlibtest.cpp:17:0
	movl	-4(%ebp), %ecx
	movl	-8(%ebp), %edx
	movl	%ecx, (%esp)
	movl	%edx, 4(%esp)
	movl	%eax, -24(%ebp)         # 4-byte Spill
	calll	_Z5powerii
	leal	_ZSt4cout, %ecx
	movl	%ecx, (%esp)
	movl	%eax, 4(%esp)
	calll	_ZNSolsEi
	leal	.L.str1, %ecx
	movl	%eax, (%esp)
	movl	%ecx, 4(%esp)
	calll	_ZStlsISt11char_traitsIcEERSt13basic_ostreamIcT_ES5_PKc
	movl	$0, %ecx
	.loc	1 18 0                  # mathlibtest.cpp:18:0
	movl	%eax, -28(%ebp)         # 4-byte Spill
	movl	%ecx, %eax
	addl	$40, %esp
	popl	%ebp
	ret
.Ltmp14:
.Ltmp15:
	.size	main, .Ltmp15-main
.Lfunc_end1:
	.cfi_endproc

	.globl	_Z7productii
	.align	16, 0x90
	.type	_Z7productii,@function
_Z7productii:                           # @_Z7productii
	.cfi_startproc
.Lfunc_begin2:
	.loc	1 20 0                  # mathlibtest.cpp:20:0
# BB#0:
	pushl	%ebp
.Ltmp18:
	.cfi_def_cfa_offset 8
.Ltmp19:
	.cfi_offset %ebp, -8
	movl	%esp, %ebp
.Ltmp20:
	.cfi_def_cfa_register %ebp
	subl	$16, %esp
	movl	12(%ebp), %eax
	movl	8(%ebp), %ecx
	movl	%ecx, -4(%ebp)
	movl	%eax, -8(%ebp)
	.loc	1 21 0 prologue_end     # mathlibtest.cpp:21:0
.Ltmp21:
	movl	$0, -12(%ebp)
	.loc	1 22 0                  # mathlibtest.cpp:22:0
	movl	$0, -16(%ebp)
.LBB2_1:                                # =>This Inner Loop Header: Depth=1
	.loc	1 23 0                  # mathlibtest.cpp:23:0
	movl	-16(%ebp), %eax
	cmpl	-8(%ebp), %eax
	jge	.LBB2_3
# BB#2:                                 #   in Loop: Header=BB2_1 Depth=1
	.loc	1 24 0                  # mathlibtest.cpp:24:0
.Ltmp22:
	movl	-4(%ebp), %eax
	movl	-12(%ebp), %ecx
	addl	%eax, %ecx
	movl	%ecx, -12(%ebp)
	.loc	1 25 0                  # mathlibtest.cpp:25:0
	movl	-16(%ebp), %eax
	addl	$1, %eax
	movl	%eax, -16(%ebp)
	.loc	1 26 0                  # mathlibtest.cpp:26:0
	jmp	.LBB2_1
.Ltmp23:
.LBB2_3:
	.loc	1 30 0                  # mathlibtest.cpp:30:0
	movl	-12(%ebp), %eax
	addl	$16, %esp
	popl	%ebp
	ret
.Ltmp24:
.Ltmp25:
	.size	_Z7productii, .Ltmp25-_Z7productii
.Lfunc_end2:
	.cfi_endproc

	.globl	_Z5powerii
	.align	16, 0x90
	.type	_Z5powerii,@function
_Z5powerii:                             # @_Z5powerii
	.cfi_startproc
.Lfunc_begin3:
	.loc	1 33 0                  # mathlibtest.cpp:33:0
# BB#0:
	pushl	%ebp
.Ltmp28:
	.cfi_def_cfa_offset 8
.Ltmp29:
	.cfi_offset %ebp, -8
	movl	%esp, %ebp
.Ltmp30:
	.cfi_def_cfa_register %ebp
	subl	$24, %esp
	movl	12(%ebp), %eax
	movl	8(%ebp), %ecx
	movl	%ecx, -4(%ebp)
	movl	%eax, -8(%ebp)
	.loc	1 35 0 prologue_end     # mathlibtest.cpp:35:0
.Ltmp31:
	cmpl	$0, -8(%ebp)
	jne	.LBB3_2
# BB#1:
	.loc	1 36 0                  # mathlibtest.cpp:36:0
.Ltmp32:
	movl	$1, -12(%ebp)
	.loc	1 37 0                  # mathlibtest.cpp:37:0
	jmp	.LBB3_3
.Ltmp33:
.LBB3_2:
	.loc	1 39 0                  # mathlibtest.cpp:39:0
	movl	-4(%ebp), %eax
	movl	-4(%ebp), %ecx
	movl	-8(%ebp), %edx
	subl	$1, %edx
	movl	%ecx, (%esp)
	movl	%edx, 4(%esp)
	movl	%eax, -16(%ebp)         # 4-byte Spill
	calll	_Z5powerii
	movl	-16(%ebp), %ecx         # 4-byte Reload
	imull	%eax, %ecx
	movl	%ecx, -12(%ebp)
.Ltmp34:
.LBB3_3:
	.loc	1 41 0                  # mathlibtest.cpp:41:0
	movl	-12(%ebp), %eax
	addl	$24, %esp
	popl	%ebp
	ret
.Ltmp35:
.Ltmp36:
	.size	_Z5powerii, .Ltmp36-_Z5powerii
.Lfunc_end3:
	.cfi_endproc

	.section	.text.startup,"ax",@progbits
	.align	16, 0x90
	.type	_GLOBAL__I_a,@function
_GLOBAL__I_a:                           # @_GLOBAL__I_a
	.cfi_startproc
.Lfunc_begin4:
	.loc	1 42 0                  # mathlibtest.cpp:42:0
# BB#0:
	pushl	%ebp
.Ltmp39:
	.cfi_def_cfa_offset 8
.Ltmp40:
	.cfi_offset %ebp, -8
	movl	%esp, %ebp
.Ltmp41:
	.cfi_def_cfa_register %ebp
	.loc	1 42 0 prologue_end     # mathlibtest.cpp:42:0
.Ltmp42:
	subl	$8, %esp
	calll	__cxx_global_var_init
	addl	$8, %esp
	popl	%ebp
	ret
.Ltmp43:
.Ltmp44:
	.size	_GLOBAL__I_a, .Ltmp44-_GLOBAL__I_a
.Lfunc_end4:
	.cfi_endproc

	.type	_ZStL8__ioinit,@object  # @_ZStL8__ioinit
	.local	_ZStL8__ioinit
	.comm	_ZStL8__ioinit,1,1
	.type	.L.str,@object          # @.str
	.section	.rodata.str1.1,"aMS",@progbits,1
.L.str:
	.asciz	"enter two integer numbers: "
	.size	.L.str, 28

	.type	.L.str1,@object         # @.str1
.L.str1:
	.asciz	"\n"
	.size	.L.str1, 2

	.section	.init_array,"aw",@init_array
	.align	4
	.long	_GLOBAL__I_a
	.section	.text.startup,"ax",@progbits
.Ldebug_end1:
	.text
.Ldebug_end2:
	.section	".note.GNU-stack","",@progbits
