	.file	"testArray.cpp"
	.intel_syntax noprefix
	.local	_ZStL8__ioinit
	.comm	_ZStL8__ioinit,1,1
	.text
	.globl	main
	.type	main, @function
main:
.LFB971:
	.cfi_startproc
	push	ebp
	.cfi_def_cfa_offset 8
	.cfi_offset 5, -8
	mov	ebp, esp
	.cfi_def_cfa_register 5
	and	esp, -16
	sub	esp, 32
	mov	DWORD PTR [esp+24], 1
	mov	DWORD PTR [esp+28], 2
	lea	eax, [esp+24]
	mov	DWORD PTR [esp], eax
	call	_Z11returnArrayPi
	lea	eax, [esp+24]
	mov	DWORD PTR [esp], eax
	call	_Z14returnArrayRefPi
	mov	eax, 0
	leave
	.cfi_restore 5
	.cfi_def_cfa 4, 4
	ret
	.cfi_endproc
.LFE971:
	.size	main, .-main
	.globl	_Z11returnArrayPi
	.type	_Z11returnArrayPi, @function
_Z11returnArrayPi:
.LFB972:
	.cfi_startproc
	push	ebp
	.cfi_def_cfa_offset 8
	.cfi_offset 5, -8
	mov	ebp, esp
	.cfi_def_cfa_register 5
	mov	eax, DWORD PTR [ebp+8]
	mov	edx, DWORD PTR [eax]
	mov	eax, DWORD PTR [ebp+8]
	add	eax, 4
	mov	eax, DWORD PTR [eax]
	add	eax, edx
	pop	ebp
	.cfi_restore 5
	.cfi_def_cfa 4, 4
	ret
	.cfi_endproc
.LFE972:
	.size	_Z11returnArrayPi, .-_Z11returnArrayPi
	.globl	_Z14returnArrayRefPi
	.type	_Z14returnArrayRefPi, @function
_Z14returnArrayRefPi:
.LFB973:
	.cfi_startproc
	push	ebp
	.cfi_def_cfa_offset 8
	.cfi_offset 5, -8
	mov	ebp, esp
	.cfi_def_cfa_register 5
	mov	eax, DWORD PTR [ebp+8]
	mov	edx, DWORD PTR [eax]
	mov	eax, DWORD PTR [ebp+8]
	add	eax, 4
	mov	eax, DWORD PTR [eax]
	add	eax, edx
	pop	ebp
	.cfi_restore 5
	.cfi_def_cfa 4, 4
	ret
	.cfi_endproc
.LFE973:
	.size	_Z14returnArrayRefPi, .-_Z14returnArrayRefPi
	.type	_Z41__static_initialization_and_destruction_0ii, @function
_Z41__static_initialization_and_destruction_0ii:
.LFB974:
	.cfi_startproc
	push	ebp
	.cfi_def_cfa_offset 8
	.cfi_offset 5, -8
	mov	ebp, esp
	.cfi_def_cfa_register 5
	sub	esp, 24
	cmp	DWORD PTR [ebp+8], 1
	jne	.L7
	cmp	DWORD PTR [ebp+12], 65535
	jne	.L7
	mov	DWORD PTR [esp], OFFSET FLAT:_ZStL8__ioinit
	call	_ZNSt8ios_base4InitC1Ev
	mov	DWORD PTR [esp+8], OFFSET FLAT:__dso_handle
	mov	DWORD PTR [esp+4], OFFSET FLAT:_ZStL8__ioinit
	mov	DWORD PTR [esp], OFFSET FLAT:_ZNSt8ios_base4InitD1Ev
	call	__cxa_atexit
.L7:
	leave
	.cfi_restore 5
	.cfi_def_cfa 4, 4
	ret
	.cfi_endproc
.LFE974:
	.size	_Z41__static_initialization_and_destruction_0ii, .-_Z41__static_initialization_and_destruction_0ii
	.type	_GLOBAL__sub_I_main, @function
_GLOBAL__sub_I_main:
.LFB975:
	.cfi_startproc
	push	ebp
	.cfi_def_cfa_offset 8
	.cfi_offset 5, -8
	mov	ebp, esp
	.cfi_def_cfa_register 5
	sub	esp, 24
	mov	DWORD PTR [esp+4], 65535
	mov	DWORD PTR [esp], 1
	call	_Z41__static_initialization_and_destruction_0ii
	leave
	.cfi_restore 5
	.cfi_def_cfa 4, 4
	ret
	.cfi_endproc
.LFE975:
	.size	_GLOBAL__sub_I_main, .-_GLOBAL__sub_I_main
	.section	.init_array,"aw"
	.align 4
	.long	_GLOBAL__sub_I_main
	.hidden	__dso_handle
	.ident	"GCC: (Ubuntu 4.8.4-2ubuntu1~14.04) 4.8.4"
	.section	.note.GNU-stack,"",@progbits
