	.file	"postLab9.cpp"
	.intel_syntax noprefix
	.local	_ZStL8__ioinit
	.comm	_ZStL8__ioinit,1,1
	.text
	.globl	_Z3addii
	.type	_Z3addii, @function
_Z3addii:
.LFB971:
	.cfi_startproc
	push	ebp
	.cfi_def_cfa_offset 8
	.cfi_offset 5, -8
	mov	ebp, esp
	.cfi_def_cfa_register 5
	mov	eax, DWORD PTR [ebp+12]
	mov	edx, DWORD PTR [ebp+8]
	add	eax, edx
	pop	ebp
	.cfi_restore 5
	.cfi_def_cfa 4, 4
	ret
	.cfi_endproc
.LFE971:
	.size	_Z3addii, .-_Z3addii
	.globl	main
	.type	main, @function
main:
.LFB972:
	.cfi_startproc
	push	ebp
	.cfi_def_cfa_offset 8
	.cfi_offset 5, -8
	mov	ebp, esp
	.cfi_def_cfa_register 5
	and	esp, -16
	sub	esp, 48
	mov	DWORD PTR [esp+28], 0
	mov	DWORD PTR [esp+36], 1
	mov	DWORD PTR [esp+40], 2
	mov	DWORD PTR [esp+44], 3
	mov	DWORD PTR [esp+32], 0
	mov	DWORD PTR [esp+28], 0
	jmp	.L4
.L5:
	add	DWORD PTR [esp+32], 2
	add	DWORD PTR [esp+28], 1
.L4:
	cmp	DWORD PTR [esp+28], 2
	jle	.L5
	mov	eax, DWORD PTR [esp+32]
	mov	DWORD PTR [esp+4], eax
	mov	DWORD PTR [esp], OFFSET FLAT:_ZSt4cout
	call	_ZNSolsEi
	mov	eax, 0
	leave
	.cfi_restore 5
	.cfi_def_cfa 4, 4
	ret
	.cfi_endproc
.LFE972:
	.size	main, .-main
	.type	_Z41__static_initialization_and_destruction_0ii, @function
_Z41__static_initialization_and_destruction_0ii:
.LFB973:
	.cfi_startproc
	push	ebp
	.cfi_def_cfa_offset 8
	.cfi_offset 5, -8
	mov	ebp, esp
	.cfi_def_cfa_register 5
	sub	esp, 24
	cmp	DWORD PTR [ebp+8], 1
	jne	.L7
	cmp	DWORD PTR [ebp+12], 65535
	jne	.L7
	mov	DWORD PTR [esp], OFFSET FLAT:_ZStL8__ioinit
	call	_ZNSt8ios_base4InitC1Ev
	mov	DWORD PTR [esp+8], OFFSET FLAT:__dso_handle
	mov	DWORD PTR [esp+4], OFFSET FLAT:_ZStL8__ioinit
	mov	DWORD PTR [esp], OFFSET FLAT:_ZNSt8ios_base4InitD1Ev
	call	__cxa_atexit
.L7:
	leave
	.cfi_restore 5
	.cfi_def_cfa 4, 4
	ret
	.cfi_endproc
.LFE973:
	.size	_Z41__static_initialization_and_destruction_0ii, .-_Z41__static_initialization_and_destruction_0ii
	.type	_GLOBAL__sub_I__Z3addii, @function
_GLOBAL__sub_I__Z3addii:
.LFB974:
	.cfi_startproc
	push	ebp
	.cfi_def_cfa_offset 8
	.cfi_offset 5, -8
	mov	ebp, esp
	.cfi_def_cfa_register 5
	sub	esp, 24
	mov	DWORD PTR [esp+4], 65535
	mov	DWORD PTR [esp], 1
	call	_Z41__static_initialization_and_destruction_0ii
	leave
	.cfi_restore 5
	.cfi_def_cfa 4, 4
	ret
	.cfi_endproc
.LFE974:
	.size	_GLOBAL__sub_I__Z3addii, .-_GLOBAL__sub_I__Z3addii
	.section	.init_array,"aw"
	.align 4
	.long	_GLOBAL__sub_I__Z3addii
	.hidden	__dso_handle
	.ident	"GCC: (Ubuntu 4.8.4-2ubuntu1~14.04) 4.8.4"
	.section	.note.GNU-stack,"",@progbits
